target datalayout = "e-m:e-p270:32:32-p271:32:32-p272:64:64-i64:64-i128:128-f80:128-n8:16:32:64-S128"
target triple = "x86_64-pc-linux-gnu"

%struct._expr = type { i32, %union.anon.34, i32, i32, i32, i32 }
%union.anon.34 = type { %struct.anon.37 }
%struct.anon.37 = type { ptr, i32, ptr }
%struct._object = type { %union.anon.62, ptr }
%union.anon.62 = type { i64 }
%struct.anon.38 = type { i32, ptr }
%struct.anon.50 = type { ptr, ptr, ptr }
%struct.anon.54 = type { ptr, ptr }
%struct.anon.63 = type { i32, i32 }
%struct.asdl_int_seq = type { i64, ptr, [1 x i32] }

@PyExc_KeyboardInterrupt = external global ptr, align 8
@fold_unaryop.ops = internal constant [5 x ptr] [ptr null, ptr @PyNumber_Invert, ptr @unary_not, ptr @PyNumber_Positive, ptr @PyNumber_Negative], align 16

; Function Attrs: alwaysinline nounwind uwtable
define internal i32 @_Py_IsImmortal(ptr noundef %0) #5 {
  %2 = alloca ptr, align 8
  store ptr %0, ptr %2, align 8, !tbaa !31
  %3 = load ptr, ptr %2, align 8, !tbaa !31
  %4 = getelementptr inbounds nuw %struct._object, ptr %3, i32 0, i32 0
  %5 = getelementptr inbounds nuw %struct.anon.63, ptr %4, i32 0, i32 0
  %6 = load i32, ptr %5, align 8, !tbaa !35
  %7 = icmp slt i32 %6, 0
  %8 = zext i1 %7 to i32
  ret i32 %8
}

; Function Attrs: alwaysinline nounwind uwtable
define internal void @Py_DECREF(ptr noundef %0) #5 {
  %2 = alloca ptr, align 8
  store ptr %0, ptr %2, align 8, !tbaa !31
  %3 = load ptr, ptr %2, align 8, !tbaa !31
  %4 = call i32 @_Py_IsImmortal(ptr noundef %3)
  %5 = icmp ne i32 %4, 0
  br i1 %5, label %6, label %7

6:                                                ; preds = %1
  br label %16

7:                                                ; preds = %1
  %8 = load ptr, ptr %2, align 8, !tbaa !31
  %9 = getelementptr inbounds nuw %struct._object, ptr %8, i32 0, i32 0
  %10 = getelementptr inbounds nuw %struct.anon.63, ptr %9, i32 0, i32 0
  %11 = load i32, ptr %10, align 8, !tbaa !35
  %12 = add i32 %11, -1
  store i32 %12, ptr %10, align 8, !tbaa !35
  %13 = icmp eq i32 %12, 0
  br i1 %13, label %14, label %16

14:                                               ; preds = %7
  %15 = load ptr, ptr %2, align 8, !tbaa !31
  call void @_Py_Dealloc(ptr noundef %15)
  br label %16

16:                                               ; preds = %6, %14, %7
  ret void
}

; Function Attrs: nounwind uwtable
define internal i32 @make_const(ptr noundef %0, ptr noundef %1, ptr noundef %2) #0 {
  %4 = alloca i32, align 4
  %5 = alloca ptr, align 8
  %6 = alloca ptr, align 8
  %7 = alloca ptr, align 8
  store ptr %0, ptr %5, align 8, !tbaa !44
  store ptr %1, ptr %6, align 8, !tbaa !31
  store ptr %2, ptr %7, align 8, !tbaa !9
  %8 = load ptr, ptr %6, align 8, !tbaa !31
  %9 = icmp eq ptr %8, null
  br i1 %9, label %10, label %16

10:                                               ; preds = %3
  %11 = load ptr, ptr @PyExc_KeyboardInterrupt, align 8, !tbaa !31
  %12 = call i32 @PyErr_ExceptionMatches(ptr noundef %11)
  %13 = icmp ne i32 %12, 0
  br i1 %13, label %14, label %15

14:                                               ; preds = %10
  store i32 0, ptr %4, align 4
  br label %33

15:                                               ; preds = %10
  call void @PyErr_Clear()
  store i32 1, ptr %4, align 4
  br label %33

16:                                               ; preds = %3
  %17 = load ptr, ptr %7, align 8, !tbaa !9
  %18 = load ptr, ptr %6, align 8, !tbaa !31
  %19 = call i32 @_PyArena_AddPyObject(ptr noundef %17, ptr noundef %18)
  %20 = icmp slt i32 %19, 0
  br i1 %20, label %21, label %23

21:                                               ; preds = %16
  %22 = load ptr, ptr %6, align 8, !tbaa !31
  call void @Py_DECREF(ptr noundef %22)
  store i32 0, ptr %4, align 4
  br label %33

23:                                               ; preds = %16
  %24 = load ptr, ptr %5, align 8, !tbaa !44
  %25 = getelementptr inbounds nuw %struct._expr, ptr %24, i32 0, i32 0
  store i32 20, ptr %25, align 8, !tbaa !94
  %26 = load ptr, ptr %5, align 8, !tbaa !44
  %27 = getelementptr inbounds nuw %struct._expr, ptr %26, i32 0, i32 1
  %28 = getelementptr inbounds nuw %struct.anon.54, ptr %27, i32 0, i32 1
  store ptr null, ptr %28, align 8, !tbaa !35
  %29 = load ptr, ptr %6, align 8, !tbaa !31
  %30 = load ptr, ptr %5, align 8, !tbaa !44
  %31 = getelementptr inbounds nuw %struct._expr, ptr %30, i32 0, i32 1
  %32 = getelementptr inbounds nuw %struct.anon.54, ptr %31, i32 0, i32 0
  store ptr %29, ptr %32, align 8, !tbaa !35
  store i32 1, ptr %4, align 4
  br label %33

33:                                               ; preds = %23, %21, %15, %14
  %34 = load i32, ptr %4, align 4
  ret i32 %34
}

; Function Attrs: nounwind uwtable
define internal i32 @fold_unaryop(ptr noundef %0, ptr noundef %1, ptr noundef %2) #0 {
  %4 = alloca i32, align 4
  %5 = alloca ptr, align 8
  %6 = alloca ptr, align 8
  %7 = alloca ptr, align 8
  %8 = alloca ptr, align 8
  %9 = alloca i32, align 4
  %10 = alloca i32, align 4
  %11 = alloca ptr, align 8
  store ptr %0, ptr %5, align 8, !tbaa !44
  store ptr %1, ptr %6, align 8, !tbaa !9
  store ptr %2, ptr %7, align 8, !tbaa !32
  call void @llvm.lifetime.start.p0(i64 8, ptr %8) #8
  %12 = load ptr, ptr %5, align 8, !tbaa !44
  %13 = getelementptr inbounds nuw %struct._expr, ptr %12, i32 0, i32 1
  %14 = getelementptr inbounds nuw %struct.anon.38, ptr %13, i32 0, i32 1
  %15 = load ptr, ptr %14, align 8, !tbaa !35
  store ptr %15, ptr %8, align 8, !tbaa !44
  %16 = load ptr, ptr %8, align 8, !tbaa !44
  %17 = getelementptr inbounds nuw %struct._expr, ptr %16, i32 0, i32 0
  %18 = load i32, ptr %17, align 8, !tbaa !94
  %19 = icmp ne i32 %18, 20
  br i1 %19, label %20, label %80

20:                                               ; preds = %3
  %21 = load ptr, ptr %5, align 8, !tbaa !44
  %22 = getelementptr inbounds nuw %struct._expr, ptr %21, i32 0, i32 1
  %23 = getelementptr inbounds nuw %struct.anon.38, ptr %22, i32 0, i32 0
  %24 = load i32, ptr %23, align 8, !tbaa !35
  %25 = icmp eq i32 %24, 2
  br i1 %25, label %26, label %79

26:                                               ; preds = %20
  %27 = load ptr, ptr %8, align 8, !tbaa !44
  %28 = getelementptr inbounds nuw %struct._expr, ptr %27, i32 0, i32 0
  %29 = load i32, ptr %28, align 8, !tbaa !94
  %30 = icmp eq i32 %29, 16
  br i1 %30, label %31, label %79

31:                                               ; preds = %26
  %32 = load ptr, ptr %8, align 8, !tbaa !44
  %33 = getelementptr inbounds nuw %struct._expr, ptr %32, i32 0, i32 1
  %34 = getelementptr inbounds nuw %struct.anon.50, ptr %33, i32 0, i32 1
  %35 = load ptr, ptr %34, align 8, !tbaa !35
  %36 = icmp eq ptr %35, null
  br i1 %36, label %37, label %38

37:                                               ; preds = %31
  br label %45

38:                                               ; preds = %31
  %39 = load ptr, ptr %8, align 8, !tbaa !44
  %40 = getelementptr inbounds nuw %struct._expr, ptr %39, i32 0, i32 1
  %41 = getelementptr inbounds nuw %struct.anon.50, ptr %40, i32 0, i32 1
  %42 = load ptr, ptr %41, align 8, !tbaa !35
  %43 = getelementptr inbounds nuw %struct.asdl_int_seq, ptr %42, i32 0, i32 0
  %44 = load i64, ptr %43, align 8, !tbaa !37
  br label %45

45:                                               ; preds = %38, %37
  %46 = phi i64 [ 0, %37 ], [ %44, %38 ]
  %47 = icmp eq i64 %46, 1
  br i1 %47, label %48, label %79

48:                                               ; preds = %45
  call void @llvm.lifetime.start.p0(i64 4, ptr %9) #8
  %49 = load ptr, ptr %8, align 8, !tbaa !44
  %50 = getelementptr inbounds nuw %struct._expr, ptr %49, i32 0, i32 1
  %51 = getelementptr inbounds nuw %struct.anon.50, ptr %50, i32 0, i32 1
  %52 = load ptr, ptr %51, align 8, !tbaa !35
  %53 = getelementptr inbounds nuw %struct.asdl_int_seq, ptr %52, i32 0, i32 2
  %54 = getelementptr [1 x i32], ptr %53, i64 0, i64 0
  %55 = load i32, ptr %54, align 8, !tbaa !11
  store i32 %55, ptr %9, align 4, !tbaa !11
  %56 = load i32, ptr %9, align 4, !tbaa !11
  switch i32 %56, label %62 [
    i32 7, label %57
    i32 8, label %58
    i32 9, label %59
    i32 10, label %60
    i32 1, label %61
    i32 2, label %61
    i32 3, label %61
    i32 4, label %61
    i32 5, label %61
    i32 6, label %61
  ]

57:                                               ; preds = %48
  store i32 8, ptr %9, align 4, !tbaa !11
  br label %62

58:                                               ; preds = %48
  store i32 7, ptr %9, align 4, !tbaa !11
  br label %62

59:                                               ; preds = %48
  store i32 10, ptr %9, align 4, !tbaa !11
  br label %62

60:                                               ; preds = %48
  store i32 9, ptr %9, align 4, !tbaa !11
  br label %62

61:                                               ; preds = %48, %48, %48, %48, %48, %48
  store i32 0, ptr %9, align 4, !tbaa !11
  br label %62

62:                                               ; preds = %48, %61, %60, %59, %58, %57
  %63 = load i32, ptr %9, align 4, !tbaa !11
  %64 = icmp ne i32 %63, 0
  br i1 %64, label %65, label %75

65:                                               ; preds = %62
  %66 = load i32, ptr %9, align 4, !tbaa !11
  %67 = load ptr, ptr %8, align 8, !tbaa !44
  %68 = getelementptr inbounds nuw %struct._expr, ptr %67, i32 0, i32 1
  %69 = getelementptr inbounds nuw %struct.anon.50, ptr %68, i32 0, i32 1
  %70 = load ptr, ptr %69, align 8, !tbaa !35
  %71 = getelementptr inbounds nuw %struct.asdl_int_seq, ptr %70, i32 0, i32 2
  %72 = getelementptr [1 x i32], ptr %71, i64 0, i64 0
  store i32 %66, ptr %72, align 8, !tbaa !11
  %73 = load ptr, ptr %5, align 8, !tbaa !44
  %74 = load ptr, ptr %8, align 8, !tbaa !44
  call void @llvm.memcpy.p0.p0.i64(ptr align 8 %73, ptr align 8 %74, i64 48, i1 false)
  store i32 1, ptr %4, align 4
  store i32 1, ptr %10, align 4
  br label %76

75:                                               ; preds = %62
  store i32 0, ptr %10, align 4
  br label %76

76:                                               ; preds = %75, %65
  call void @llvm.lifetime.end.p0(i64 4, ptr %9) #8
  %77 = load i32, ptr %10, align 4
  switch i32 %77, label %97 [
    i32 0, label %78
  ]

78:                                               ; preds = %76
  br label %79

79:                                               ; preds = %78, %45, %26, %20
  store i32 1, ptr %4, align 4
  store i32 1, ptr %10, align 4
  br label %97

80:                                               ; preds = %3
  call void @llvm.lifetime.start.p0(i64 8, ptr %11) #8
  %81 = load ptr, ptr %5, align 8, !tbaa !44
  %82 = getelementptr inbounds nuw %struct._expr, ptr %81, i32 0, i32 1
  %83 = getelementptr inbounds nuw %struct.anon.38, ptr %82, i32 0, i32 0
  %84 = load i32, ptr %83, align 8, !tbaa !35
  %85 = zext i32 %84 to i64
  %86 = getelementptr [5 x ptr], ptr @fold_unaryop.ops, i64 0, i64 %85
  %87 = load ptr, ptr %86, align 8, !tbaa !32
  %88 = load ptr, ptr %8, align 8, !tbaa !44
  %89 = getelementptr inbounds nuw %struct._expr, ptr %88, i32 0, i32 1
  %90 = getelementptr inbounds nuw %struct.anon.54, ptr %89, i32 0, i32 0
  %91 = load ptr, ptr %90, align 8, !tbaa !35
  %92 = call ptr %87(ptr noundef %91)
  store ptr %92, ptr %11, align 8, !tbaa !31
  %93 = load ptr, ptr %5, align 8, !tbaa !44
  %94 = load ptr, ptr %11, align 8, !tbaa !31
  %95 = load ptr, ptr %6, align 8, !tbaa !9
  %96 = call i32 @make_const(ptr noundef %93, ptr noundef %94, ptr noundef %95)
  store i32 %96, ptr %4, align 4
  store i32 1, ptr %10, align 4
  call void @llvm.lifetime.end.p0(i64 8, ptr %11) #8
  br label %97

97:                                               ; preds = %80, %79, %76
  call void @llvm.lifetime.end.p0(i64 8, ptr %8) #8
  %98 = load i32, ptr %4, align 4
  ret i32 %98
}