; Function Attrs: nounwind uwtable
define internal fastcc range(i32 0, 2) i32 @fold_unaryop(ptr noundef captures(none) %0, ptr noundef %1) unnamed_addr #0 {
  %3 = getelementptr inbounds nuw i8, ptr %0, i64 8
  %4 = getelementptr inbounds nuw i8, ptr %0, i64 16
  %5 = load ptr, ptr %4, align 8, !tbaa !28
  %6 = load i32, ptr %5, align 8, !tbaa !101
  %.not = icmp eq i32 %6, 20
  %7 = load i32, ptr %3, align 8, !tbaa !28
  br i1 %.not, label %24, label %8

8:                                                ; preds = %2
  %9 = icmp eq i32 %7, 2
  %10 = icmp eq i32 %6, 16
  %or.cond = and i1 %10, %9
  br i1 %or.cond, label %11, label %.critedge

11:                                               ; preds = %8
  %12 = getelementptr inbounds nuw i8, ptr %5, i64 16
  %13 = load ptr, ptr %12, align 8, !tbaa !28
  %14 = icmp eq ptr %13, null
  br i1 %14, label %.critedge, label %15

15:                                               ; preds = %11
  %16 = load i64, ptr %13, align 8, !tbaa !29
  %17 = icmp eq i64 %16, 1
  br i1 %17, label %18, label %.critedge

18:                                               ; preds = %15
  %19 = getelementptr inbounds nuw i8, ptr %13, i64 16
  %20 = load i32, ptr %19, align 8, !tbaa !170
  switch i32 %20, label %.thread.fold.split [
    i32 7, label %.thread
    i32 8, label %21
    i32 9, label %22
    i32 10, label %23
    i32 1, label %.critedge
    i32 2, label %.critedge
    i32 3, label %.critedge
    i32 4, label %.critedge
    i32 5, label %.critedge
    i32 6, label %.critedge
    i32 0, label %.critedge
  ]

21:                                               ; preds = %18
  br label %.thread

22:                                               ; preds = %18
  br label %.thread

23:                                               ; preds = %18
  br label %.thread

.thread.fold.split:                               ; preds = %18
  br label %.thread

.thread:                                          ; preds = %18, %.thread.fold.split, %21, %22, %23
  %.0203 = phi i32 [ 7, %21 ], [ 10, %22 ], [ 9, %23 ], [ 8, %18 ], [ %20, %.thread.fold.split ]
  store i32 %.0203, ptr %19, align 8, !tbaa !170
  tail call void @llvm.memcpy.p0.p0.i64(ptr noundef nonnull align 8 dereferenceable(48) %0, ptr noundef nonnull align 8 dereferenceable(48) %5, i64 48, i1 false)
  br label %.critedge

24:                                               ; preds = %2
  %25 = zext i32 %7 to i64
  %26 = getelementptr [5 x ptr], ptr @fold_unaryop.ops, i64 0, i64 %25
  %27 = load ptr, ptr %26, align 8, !tbaa !177
  %28 = getelementptr inbounds nuw i8, ptr %5, i64 8
  %29 = load ptr, ptr %28, align 8, !tbaa !28
  %30 = tail call ptr %27(ptr noundef %29) #8
  %31 = icmp eq ptr %30, null
  br i1 %31, label %32, label %36

32:                                               ; preds = %24
  %33 = load ptr, ptr @PyExc_KeyboardInterrupt, align 8, !tbaa !35
  %34 = tail call i32 @PyErr_ExceptionMatches(ptr noundef %33) #8
  %.not.i = icmp eq i32 %34, 0
  br i1 %.not.i, label %35, label %.critedge

35:                                               ; preds = %32
  tail call void @PyErr_Clear() #8
  br label %.critedge

36:                                               ; preds = %24
  %37 = tail call i32 @_PyArena_AddPyObject(ptr noundef %1, ptr noundef nonnull %30) #8
  %38 = icmp slt i32 %37, 0
  br i1 %38, label %39, label %45

39:                                               ; preds = %36
  %40 = load i32, ptr %30, align 8, !tbaa !28
  %.not.i.i = icmp sgt i32 %40, -1
  br i1 %.not.i.i, label %41, label %.critedge

41:                                               ; preds = %39
  %42 = add nsw i32 %40, -1
  store i32 %42, ptr %30, align 8, !tbaa !28
  %43 = icmp eq i32 %42, 0
  br i1 %43, label %44, label %.critedge

44:                                               ; preds = %41
  tail call void @_Py_Dealloc(ptr noundef nonnull %30) #8
  br label %.critedge

45:                                               ; preds = %36
  store i32 20, ptr %0, align 8, !tbaa !101
  store ptr null, ptr %4, align 8, !tbaa !28
  store ptr %30, ptr %3, align 8, !tbaa !28
  br label %.critedge

.critedge:                                        ; preds = %18, %18, %18, %18, %18, %18, %18, %45, %44, %41, %39, %35, %32, %.thread, %8, %15, %11
  %.1 = phi i32 [ 1, %11 ], [ 1, %.thread ], [ 1, %15 ], [ 1, %8 ], [ 1, %35 ], [ 1, %45 ], [ 0, %32 ], [ 0, %39 ], [ 0, %41 ], [ 0, %44 ], [ 1, %18 ], [ 1, %18 ], [ 1, %18 ], [ 1, %18 ], [ 1, %18 ], [ 1, %18 ], [ 1, %18 ]
  ret i32 %.1
}